target datalayout = "e-m:e-p270:32:32-p271:32:32-p272:64:64-i64:64-i128:128-f80:128-n8:16:32:64-S128"
target triple = "x86_64-pc-linux-gnu"

%"class.gmx::ImdSession::Impl" = type { i8, ptr, i32, i32, ptr, ptr, i32, ptr, ptr, ptr, ptr, ptr, i32, i32, i32, i32, ptr, ptr, i32, i8, i8, i8, i8, i8, ptr, i32, ptr, ptr, i32, ptr, ptr, ptr, ptr, ptr, %struct.t_block, i32, ptr, ptr, ptr, ptr, ptr, ptr }
%struct.t_block = type { i32, ptr, i32 }

; Function Attrs: mustprogress nounwind uwtable
define void @_ZN3gmx10ImdSession4ImplD2Ev(ptr noundef nonnull align 8 dereferenceable(296) %0) unnamed_addr #3 align 2 personality ptr @__gxx_personality_v0 {
  %2 = alloca ptr, align 8
  store ptr %0, ptr %2, align 8, !tbaa !266
  %3 = load ptr, ptr %2, align 8
  %4 = getelementptr inbounds nuw %"class.gmx::ImdSession::Impl", ptr %3, i32 0, i32 1
  %5 = load ptr, ptr %4, align 8, !tbaa !303
  %6 = icmp ne ptr %5, null
  br i1 %6, label %7, label %12

7:                                                ; preds = %1
  %8 = getelementptr inbounds nuw %"class.gmx::ImdSession::Impl", ptr %3, i32 0, i32 1
  %9 = load ptr, ptr %8, align 8, !tbaa !303
  %10 = invoke noundef i32 @_Z14gmx_fio_fcloseP8_IO_FILE(ptr noundef %9)
          to label %11 unwind label %15

11:                                               ; preds = %7
  br label %12

12:                                               ; preds = %11, %1
  %13 = getelementptr inbounds nuw %"class.gmx::ImdSession::Impl", ptr %3, i32 0, i32 34
  invoke void @_Z10done_blockP7t_block(ptr noundef %13)
          to label %14 unwind label %15

14:                                               ; preds = %12
  ret void

15:                                               ; preds = %12, %7
  %16 = landingpad { ptr, i32 }
          catch ptr null
  %17 = extractvalue { ptr, i32 } %16, 0
  call void @__clang_call_terminate(ptr %17) #19
  unreachable
}