; Function Attrs: mustprogress nounwind uwtable
define void @_ZN3gmx10ImdSession4ImplD2Ev(ptr noundef nonnull align 8 dereferenceable(296) %0) unnamed_addr #4 align 2 personality ptr @__gxx_personality_v0 {
  %2 = getelementptr inbounds nuw i8, ptr %0, i64 8
  %3 = load ptr, ptr %2, align 8, !tbaa !153
  %.not = icmp eq ptr %3, null
  br i1 %.not, label %6, label %4

4:                                                ; preds = %1
  %5 = invoke noundef i32 @_Z14gmx_fio_fcloseP8_IO_FILE(ptr noundef nonnull %3)
          to label %6 unwind label %9

6:                                                ; preds = %4, %1
  %7 = getelementptr inbounds nuw i8, ptr %0, i64 216
  invoke void @_Z10done_blockP7t_block(ptr noundef nonnull %7)
          to label %8 unwind label %9

8:                                                ; preds = %6
  ret void

9:                                                ; preds = %6, %4
  %10 = landingpad { ptr, i32 }
          catch ptr null
  %11 = extractvalue { ptr, i32 } %10, 0
  tail call void @__clang_call_terminate(ptr %11) #27
  unreachable
}